target datalayout = "e-m:e-p270:32:32-p271:32:32-p272:64:64-i64:64-i128:128-f80:128-n8:16:32:64-S128"
target triple = "x86_64-pc-linux-gnu"

%struct.Latch = type { i32, i32, i8, i32 }

@.str.1 = private unnamed_addr constant [8 x i8] c"latch.c\00", align 1
@MyProcPid = external global i32, align 4
@.str.2 = private unnamed_addr constant [30 x i8] c"latch already owned by PID %d\00", align 1
@__func__.OwnLatch = private unnamed_addr constant [9 x i8] c"OwnLatch\00", align 1

; Function Attrs: nounwind uwtable
define dso_local void @OwnLatch(ptr noundef %0) #0 {
  %2 = alloca ptr, align 8
  %3 = alloca i32, align 4
  store ptr %0, ptr %2, align 8
  call void @llvm.lifetime.start.p0(i64 4, ptr %3) #9
  %4 = load ptr, ptr %2, align 8
  %5 = getelementptr inbounds nuw %struct.Latch, ptr %4, i32 0, i32 3
  %6 = load i32, ptr %5, align 4
  store i32 %6, ptr %3, align 4
  %7 = load i32, ptr %3, align 4
  %8 = icmp ne i32 %7, 0
  br i1 %8, label %9, label %21

9:                                                ; preds = %1
  br label %10

10:                                               ; preds = %9
  br i1 true, label %11, label %13

11:                                               ; preds = %10
  %12 = call zeroext i1 @errstart_cold(i32 noundef 23, ptr noundef null) #10
  br i1 %12, label %15, label %18

13:                                               ; preds = %10
  %14 = call zeroext i1 @errstart(i32 noundef 23, ptr noundef null)
  br i1 %14, label %15, label %18

15:                                               ; preds = %13, %11
  %16 = load i32, ptr %3, align 4
  %17 = call i32 (ptr, ...) @errmsg_internal(ptr noundef @.str.2, i32 noundef %16)
  call void @errfinish(ptr noundef @.str.1, i32 noundef 480, ptr noundef @__func__.OwnLatch)
  br label %18

18:                                               ; preds = %15, %13, %11
  unreachable

19:                                               ; No predecessors!
  br label %20

20:                                               ; preds = %19
  br label %21

21:                                               ; preds = %20, %1
  %22 = load i32, ptr @MyProcPid, align 4
  %23 = load ptr, ptr %2, align 8
  %24 = getelementptr inbounds nuw %struct.Latch, ptr %23, i32 0, i32 3
  store i32 %22, ptr %24, align 4
  call void @llvm.lifetime.end.p0(i64 4, ptr %3) #9
  ret void
}