; Function Attrs: nounwind uwtable
define dso_local void @OwnLatch(ptr noundef captures(none) %0) local_unnamed_addr #0 {
  %2 = getelementptr inbounds nuw i8, ptr %0, i64 12
  %3 = load i32, ptr %2, align 4
  %.not = icmp eq i32 %3, 0
  br i1 %.not, label %7, label %4

4:                                                ; preds = %1
  %5 = tail call zeroext i1 @errstart_cold(i32 noundef 23, ptr noundef null) #15
  tail call void @llvm.assume(i1 %5)
  %6 = tail call i32 (ptr, ...) @errmsg_internal(ptr noundef nonnull @.str.2, i32 noundef %3) #14
  tail call void @errfinish(ptr noundef nonnull @.str.1, i32 noundef 480, ptr noundef nonnull @__func__.OwnLatch) #14
  unreachable

7:                                                ; preds = %1
  %8 = load i32, ptr @MyProcPid, align 4
  store i32 %8, ptr %2, align 4
  ret void
}